; Function Attrs: mustprogress uwtable
define ptr @lean_expr_lift_loose_bvars(ptr noundef %0, ptr noundef %1, ptr noundef %2) local_unnamed_addr #0 personality ptr @__gxx_personality_v0 {
  %4 = alloca ptr, align 8
  %5 = alloca %"class.lean::expr", align 8
  store ptr %0, ptr %4, align 8, !tbaa !3
  %6 = ptrtoint ptr %1 to i64
  %7 = and i64 %6, 1
  %.not = icmp eq i64 %7, 0
  br i1 %.not, label %11, label %8

8:                                                ; preds = %3
  %9 = ptrtoint ptr %2 to i64
  %10 = and i64 %9, 1
  %.not6 = icmp eq i64 %10, 0
  br i1 %.not6, label %11, label %_ZN4lean10object_refD2Ev.exit

11:                                               ; preds = %8, %3
  %12 = ptrtoint ptr %0 to i64
  %13 = and i64 %12, 1
  %.not7 = icmp eq i64 %13, 0
  br i1 %.not7, label %14, label %_ZL8lean_incP11lean_object.exit

14:                                               ; preds = %11
  %.val.i = load i32, ptr %0, align 4, !tbaa !21
  %15 = icmp sgt i32 %.val.i, 0
  br i1 %15, label %16, label %18, !prof !24

16:                                               ; preds = %14
  %17 = add nuw nsw i32 %.val.i, 1
  store i32 %17, ptr %0, align 4, !tbaa !21
  br label %_ZL8lean_incP11lean_object.exit

18:                                               ; preds = %14
  %.not.i = icmp eq i32 %.val.i, 0
  br i1 %.not.i, label %_ZL8lean_incP11lean_object.exit, label %19

19:                                               ; preds = %18
  tail call void @lean_inc_ref_cold(ptr noundef nonnull %0)
  br label %_ZL8lean_incP11lean_object.exit

_ZN4lean10object_refD2Ev.exit:                    ; preds = %8
  call void @llvm.lifetime.start.p0(i64 8, ptr nonnull %5) #16
  %20 = lshr i64 %6, 1
  %21 = trunc i64 %20 to i32
  %22 = lshr i64 %9, 1
  %23 = trunc i64 %22 to i32
  call void @_ZN4lean16lift_loose_bvarsERKNS_4exprEjj(ptr dead_on_unwind nonnull writable sret(%"class.lean::expr") align 8 %5, ptr noundef nonnull align 8 dereferenceable(8) %4, i32 noundef %21, i32 noundef %23)
  %24 = load ptr, ptr %5, align 8, !tbaa !10
  call void @llvm.lifetime.end.p0(i64 8, ptr nonnull %5) #16
  br label %_ZL8lean_incP11lean_object.exit

_ZL8lean_incP11lean_object.exit:                  ; preds = %11, %16, %18, %19, %_ZN4lean10object_refD2Ev.exit
  %.0 = phi ptr [ %24, %_ZN4lean10object_refD2Ev.exit ], [ %0, %19 ], [ %0, %18 ], [ %0, %16 ], [ %0, %11 ]
  ret ptr %.0
}